target datalayout = "e-m:e-p270:32:32-p271:32:32-p272:64:64-i64:64-i128:128-f80:128-n8:16:32:64-S128"
target triple = "x86_64-pc-linux-gnu"

@.str.4 = private unnamed_addr constant [19 x i8] c"/proc/net/if_inet6\00", align 1
@.str.5 = private unnamed_addr constant [2 x i8] c"r\00", align 1
@.str.6 = private unnamed_addr constant [10 x i8] c"inet_pton\00", align 1

; Function Attrs: nounwind uwtable
define hidden i32 @IPv6_supported() #0 {
  %1 = alloca i32, align 4
  %2 = alloca i32, align 4
  %3 = alloca ptr, align 8
  %4 = alloca i32, align 4
  %5 = alloca ptr, align 8
  %6 = alloca [255 x i8], align 16
  %7 = alloca ptr, align 8
  store i32 28, ptr %4, align 4
  %8 = call i32 @socket(i32 noundef 10, i32 noundef 1, i32 noundef 0) #9
  store i32 %8, ptr %2, align 4
  %9 = load i32, ptr %2, align 4
  %10 = icmp slt i32 %9, 0
  br i1 %10, label %11, label %12

11:                                               ; preds = %0
  store i32 0, ptr %1, align 4
  br label %34

12:                                               ; preds = %0
  %13 = load i32, ptr %2, align 4
  %14 = call i32 @close(i32 noundef %13)
  %15 = call noalias ptr @fopen64(ptr noundef @.str.4, ptr noundef @.str.5)
  store ptr %15, ptr %5, align 8
  %16 = load ptr, ptr %5, align 8
  %17 = icmp eq ptr %16, null
  br i1 %17, label %18, label %19

18:                                               ; preds = %12
  store i32 0, ptr %1, align 4
  br label %34

19:                                               ; preds = %12
  %20 = getelementptr inbounds [255 x i8], ptr %6, i64 0, i64 0
  %21 = load ptr, ptr %5, align 8
  %22 = call ptr @fgets(ptr noundef %20, i32 noundef 255, ptr noundef %21)
  store ptr %22, ptr %7, align 8
  %23 = load ptr, ptr %5, align 8
  %24 = call i32 @fclose(ptr noundef %23)
  %25 = load ptr, ptr %7, align 8
  %26 = icmp eq ptr %25, null
  br i1 %26, label %27, label %28

27:                                               ; preds = %19
  store i32 0, ptr %1, align 4
  br label %34

28:                                               ; preds = %19
  %29 = call ptr @JVM_FindLibraryEntry(ptr noundef null, ptr noundef @.str.6)
  store ptr %29, ptr %3, align 8
  %30 = load ptr, ptr %3, align 8
  %31 = icmp eq ptr %30, null
  br i1 %31, label %32, label %33

32:                                               ; preds = %28
  store i32 0, ptr %1, align 4
  br label %34

33:                                               ; preds = %28
  store i32 1, ptr %1, align 4
  br label %34

34:                                               ; preds = %33, %32, %27, %18, %11
  %35 = load i32, ptr %1, align 4
  ret i32 %35
}