; Function Attrs: nounwind uwtable
define hidden range(i32 0, 2) i32 @IPv6_supported() local_unnamed_addr #0 {
  %1 = alloca [255 x i8], align 16
  %2 = tail call i32 @socket(i32 noundef 10, i32 noundef 1, i32 noundef 0) #13
  %3 = icmp slt i32 %2, 0
  br i1 %3, label %15, label %4

4:                                                ; preds = %0
  %5 = tail call i32 @close(i32 noundef %2) #13
  %6 = tail call noalias ptr @fopen64(ptr noundef nonnull @.str.4, ptr noundef nonnull @.str.5)
  %7 = icmp eq ptr %6, null
  br i1 %7, label %15, label %8

8:                                                ; preds = %4
  %9 = call ptr @fgets(ptr noundef nonnull %1, i32 noundef 255, ptr noundef nonnull %6)
  %10 = call i32 @fclose(ptr noundef nonnull %6)
  %11 = icmp eq ptr %9, null
  br i1 %11, label %15, label %12

12:                                               ; preds = %8
  %13 = call ptr @JVM_FindLibraryEntry(ptr noundef null, ptr noundef nonnull @.str.6) #13
  %14 = icmp ne ptr %13, null
  %. = zext i1 %14 to i32
  br label %15

15:                                               ; preds = %12, %8, %4, %0
  %.0 = phi i32 [ 0, %0 ], [ 0, %4 ], [ 0, %8 ], [ %., %12 ]
  ret i32 %.0
}